target datalayout = "e-m:e-p270:32:32-p271:32:32-p272:64:64-i64:64-i128:128-f80:128-n8:16:32:64-S128"
target triple = "x86_64-pc-linux-gnu"

%class.outputStream = type { ptr, i32, i8, i32, i64, %class.TimeStamp, ptr, i64 }
%class.TimeStamp = type { i64 }
%class.stringStream = type <{ %class.outputStream, ptr, i64, i64, i8, [48 x i8], [7 x i8] }>

@_ZTV12stringStream = hidden unnamed_addr constant { [7 x ptr] } { [7 x ptr] [ptr null, ptr null, ptr @_ZN12outputStream5flushEv, ptr @_ZN12stringStream5writeEPKcm, ptr @_ZN12outputStream10rotate_logEbPS_, ptr @_ZN12stringStreamD1Ev, ptr @_ZN12stringStreamD0Ev] }, align 8

; Function Attrs: mustprogress nounwind uwtable
define linkonce_odr hidden void @_ZN12outputStreamD2Ev(ptr noundef nonnull align 8 dereferenceable(56) %0) unnamed_addr #1 comdat align 2 {
  %2 = alloca ptr, align 8
  store ptr %0, ptr %2, align 8
  ret void
}

; Function Attrs: mustprogress nounwind uwtable
define hidden void @_ZN12stringStreamD2Ev(ptr noundef nonnull align 8 dereferenceable(129) %0) unnamed_addr #1 align 2 {
  %2 = alloca ptr, align 8
  store ptr %0, ptr %2, align 8
  %3 = load ptr, ptr %2, align 8
  store ptr getelementptr inbounds inrange(-16, 40) ({ [7 x ptr] }, ptr @_ZTV12stringStream, i32 0, i32 0, i32 2), ptr %3, align 8
  %4 = getelementptr inbounds %class.stringStream, ptr %3, i32 0, i32 4
  %5 = load i8, ptr %4, align 8
  %6 = trunc i8 %5 to i1
  br i1 %6, label %16, label %7

7:                                                ; preds = %1
  %8 = getelementptr inbounds %class.stringStream, ptr %3, i32 0, i32 1
  %9 = load ptr, ptr %8, align 8
  %10 = getelementptr inbounds %class.stringStream, ptr %3, i32 0, i32 5
  %11 = getelementptr inbounds [48 x i8], ptr %10, i64 0, i64 0
  %12 = icmp ne ptr %9, %11
  br i1 %12, label %13, label %16

13:                                               ; preds = %7
  %14 = getelementptr inbounds %class.stringStream, ptr %3, i32 0, i32 1
  %15 = load ptr, ptr %14, align 8
  call void @_Z8FreeHeapPv(ptr noundef %15)
  br label %16

16:                                               ; preds = %13, %7, %1
  call void @_ZN12outputStreamD2Ev(ptr noundef nonnull align 8 dereferenceable(56) %3) #6
  ret void
}